target datalayout = "e-m:e-p270:32:32-p271:32:32-p272:64:64-i64:64-i128:128-f80:128-n8:16:32:64-S128"
target triple = "x86_64-pc-linux-gnu"

%struct.VP8Io = type { i32, i32, i32, i32, i32, ptr, ptr, ptr, i32, i32, ptr, ptr, ptr, ptr, i32, i64, ptr, i32, i32, i32, i32, i32, i32, i32, i32, i32, ptr }
%struct.WebPDecParams = type { ptr, ptr, ptr, ptr, i32, ptr, ptr, ptr, ptr, ptr, ptr, ptr, ptr, ptr }
%struct.WebPDecBuffer = type { i32, i32, i32, i32, %union.anon, [4 x i32], ptr }
%union.anon = type { %struct.WebPYUVABuffer }
%struct.WebPYUVABuffer = type { ptr, ptr, ptr, ptr, i32, i32, i32, i32, i64, i64, i64, i64 }
%struct.WebPRGBABuffer = type { ptr, i32, i64 }

@WebPDispatchAlpha = external global ptr, align 8
@WebPApplyAlphaMultiply = external global ptr, align 8

; Function Attrs: inlinehint nounwind uwtable
define internal i32 @WebPIsPremultipliedMode(i32 noundef %0) #2 {
  %2 = alloca i32, align 4
  store i32 %0, ptr %2, align 4, !tbaa !19
  %3 = load i32, ptr %2, align 4, !tbaa !19
  %4 = icmp eq i32 %3, 7
  br i1 %4, label %14, label %5

5:                                                ; preds = %1
  %6 = load i32, ptr %2, align 4, !tbaa !19
  %7 = icmp eq i32 %6, 8
  br i1 %7, label %14, label %8

8:                                                ; preds = %5
  %9 = load i32, ptr %2, align 4, !tbaa !19
  %10 = icmp eq i32 %9, 9
  br i1 %10, label %14, label %11

11:                                               ; preds = %8
  %12 = load i32, ptr %2, align 4, !tbaa !19
  %13 = icmp eq i32 %12, 10
  br label %14

14:                                               ; preds = %11, %8, %5, %1
  %15 = phi i1 [ true, %8 ], [ true, %5 ], [ true, %1 ], [ %13, %11 ]
  %16 = zext i1 %15 to i32
  ret i32 %16
}

; Function Attrs: nounwind uwtable
define internal i32 @GetAlphaSourceRow(ptr noundef %0, ptr noundef %1, ptr noundef %2) #0 {
  %4 = alloca ptr, align 8
  %5 = alloca ptr, align 8
  %6 = alloca ptr, align 8
  %7 = alloca i32, align 4
  store ptr %0, ptr %4, align 8, !tbaa !8
  store ptr %1, ptr %5, align 8, !tbaa !99
  store ptr %2, ptr %6, align 8, !tbaa !42
  call void @llvm.lifetime.start.p0(i64 4, ptr %7) #6
  %8 = load ptr, ptr %4, align 8, !tbaa !8
  %9 = getelementptr inbounds nuw %struct.VP8Io, ptr %8, i32 0, i32 2
  %10 = load i32, ptr %9, align 8, !tbaa !66
  store i32 %10, ptr %7, align 4, !tbaa !19
  %11 = load ptr, ptr %4, align 8, !tbaa !8
  %12 = getelementptr inbounds nuw %struct.VP8Io, ptr %11, i32 0, i32 4
  %13 = load i32, ptr %12, align 8, !tbaa !20
  %14 = load ptr, ptr %6, align 8, !tbaa !42
  store i32 %13, ptr %14, align 4, !tbaa !19
  %15 = load ptr, ptr %4, align 8, !tbaa !8
  %16 = getelementptr inbounds nuw %struct.VP8Io, ptr %15, i32 0, i32 14
  %17 = load i32, ptr %16, align 8, !tbaa !35
  %18 = icmp ne i32 %17, 0
  br i1 %18, label %19, label %65

19:                                               ; preds = %3
  %20 = load i32, ptr %7, align 4, !tbaa !19
  %21 = icmp eq i32 %20, 0
  br i1 %21, label %22, label %26

22:                                               ; preds = %19
  %23 = load ptr, ptr %6, align 8, !tbaa !42
  %24 = load i32, ptr %23, align 4, !tbaa !19
  %25 = add nsw i32 %24, -1
  store i32 %25, ptr %23, align 4, !tbaa !19
  br label %37

26:                                               ; preds = %19
  %27 = load i32, ptr %7, align 4, !tbaa !19
  %28 = add nsw i32 %27, -1
  store i32 %28, ptr %7, align 4, !tbaa !19
  %29 = load ptr, ptr %4, align 8, !tbaa !8
  %30 = getelementptr inbounds nuw %struct.VP8Io, ptr %29, i32 0, i32 0
  %31 = load i32, ptr %30, align 8, !tbaa !81
  %32 = load ptr, ptr %5, align 8, !tbaa !99
  %33 = load ptr, ptr %32, align 8, !tbaa !44
  %34 = sext i32 %31 to i64
  %35 = sub i64 0, %34
  %36 = getelementptr inbounds i8, ptr %33, i64 %35
  store ptr %36, ptr %32, align 8, !tbaa !44
  br label %37

37:                                               ; preds = %26, %22
  %38 = load ptr, ptr %4, align 8, !tbaa !8
  %39 = getelementptr inbounds nuw %struct.VP8Io, ptr %38, i32 0, i32 21
  %40 = load i32, ptr %39, align 8, !tbaa !76
  %41 = load ptr, ptr %4, align 8, !tbaa !8
  %42 = getelementptr inbounds nuw %struct.VP8Io, ptr %41, i32 0, i32 2
  %43 = load i32, ptr %42, align 8, !tbaa !66
  %44 = add nsw i32 %40, %43
  %45 = load ptr, ptr %4, align 8, !tbaa !8
  %46 = getelementptr inbounds nuw %struct.VP8Io, ptr %45, i32 0, i32 4
  %47 = load i32, ptr %46, align 8, !tbaa !20
  %48 = add nsw i32 %44, %47
  %49 = load ptr, ptr %4, align 8, !tbaa !8
  %50 = getelementptr inbounds nuw %struct.VP8Io, ptr %49, i32 0, i32 22
  %51 = load i32, ptr %50, align 4, !tbaa !77
  %52 = icmp eq i32 %48, %51
  br i1 %52, label %53, label %64

53:                                               ; preds = %37
  %54 = load ptr, ptr %4, align 8, !tbaa !8
  %55 = getelementptr inbounds nuw %struct.VP8Io, ptr %54, i32 0, i32 22
  %56 = load i32, ptr %55, align 4, !tbaa !77
  %57 = load ptr, ptr %4, align 8, !tbaa !8
  %58 = getelementptr inbounds nuw %struct.VP8Io, ptr %57, i32 0, i32 21
  %59 = load i32, ptr %58, align 8, !tbaa !76
  %60 = sub nsw i32 %56, %59
  %61 = load i32, ptr %7, align 4, !tbaa !19
  %62 = sub nsw i32 %60, %61
  %63 = load ptr, ptr %6, align 8, !tbaa !42
  store i32 %62, ptr %63, align 4, !tbaa !19
  br label %64

64:                                               ; preds = %53, %37
  br label %65

65:                                               ; preds = %64, %3
  %66 = load i32, ptr %7, align 4, !tbaa !19
  call void @llvm.lifetime.end.p0(i64 4, ptr %7) #6
  ret i32 %66
}

; Function Attrs: nounwind uwtable
define internal i32 @EmitAlphaRGB(ptr noundef %0, ptr noundef %1, i32 noundef %2) #0 {
  %4 = alloca ptr, align 8
  %5 = alloca ptr, align 8
  %6 = alloca i32, align 4
  %7 = alloca ptr, align 8
  %8 = alloca i32, align 4
  %9 = alloca i32, align 4
  %10 = alloca i32, align 4
  %11 = alloca ptr, align 8
  %12 = alloca i32, align 4
  %13 = alloca i32, align 4
  %14 = alloca ptr, align 8
  %15 = alloca ptr, align 8
  %16 = alloca i32, align 4
  store ptr %0, ptr %4, align 8, !tbaa !8
  store ptr %1, ptr %5, align 8, !tbaa !3
  store i32 %2, ptr %6, align 4, !tbaa !19
  call void @llvm.lifetime.start.p0(i64 8, ptr %7) #6
  %17 = load ptr, ptr %4, align 8, !tbaa !8
  %18 = getelementptr inbounds nuw %struct.VP8Io, ptr %17, i32 0, i32 26
  %19 = load ptr, ptr %18, align 8, !tbaa !78
  store ptr %19, ptr %7, align 8, !tbaa !44
  %20 = load ptr, ptr %7, align 8, !tbaa !44
  %21 = icmp ne ptr %20, null
  br i1 %21, label %22, label %90

22:                                               ; preds = %3
  call void @llvm.lifetime.start.p0(i64 4, ptr %8) #6
  %23 = load ptr, ptr %4, align 8, !tbaa !8
  %24 = getelementptr inbounds nuw %struct.VP8Io, ptr %23, i32 0, i32 3
  %25 = load i32, ptr %24, align 4, !tbaa !18
  store i32 %25, ptr %8, align 4, !tbaa !19
  call void @llvm.lifetime.start.p0(i64 4, ptr %9) #6
  %26 = load ptr, ptr %5, align 8, !tbaa !3
  %27 = getelementptr inbounds nuw %struct.WebPDecParams, ptr %26, i32 0, i32 0
  %28 = load ptr, ptr %27, align 8, !tbaa !28
  %29 = getelementptr inbounds nuw %struct.WebPDecBuffer, ptr %28, i32 0, i32 0
  %30 = load i32, ptr %29, align 8, !tbaa !29
  store i32 %30, ptr %9, align 4, !tbaa !19
  call void @llvm.lifetime.start.p0(i64 4, ptr %10) #6
  %31 = load i32, ptr %9, align 4, !tbaa !19
  %32 = icmp eq i32 %31, 4
  br i1 %32, label %36, label %33

33:                                               ; preds = %22
  %34 = load i32, ptr %9, align 4, !tbaa !19
  %35 = icmp eq i32 %34, 9
  br label %36

36:                                               ; preds = %33, %22
  %37 = phi i1 [ true, %22 ], [ %35, %33 ]
  %38 = zext i1 %37 to i32
  store i32 %38, ptr %10, align 4, !tbaa !19
  call void @llvm.lifetime.start.p0(i64 8, ptr %11) #6
  %39 = load ptr, ptr %5, align 8, !tbaa !3
  %40 = getelementptr inbounds nuw %struct.WebPDecParams, ptr %39, i32 0, i32 0
  %41 = load ptr, ptr %40, align 8, !tbaa !28
  %42 = getelementptr inbounds nuw %struct.WebPDecBuffer, ptr %41, i32 0, i32 4
  store ptr %42, ptr %11, align 8, !tbaa !62
  call void @llvm.lifetime.start.p0(i64 4, ptr %12) #6
  call void @llvm.lifetime.start.p0(i64 4, ptr %13) #6
  %43 = load ptr, ptr %4, align 8, !tbaa !8
  %44 = call i32 @GetAlphaSourceRow(ptr noundef %43, ptr noundef %7, ptr noundef %12)
  store i32 %44, ptr %13, align 4, !tbaa !19
  call void @llvm.lifetime.start.p0(i64 8, ptr %14) #6
  %45 = load ptr, ptr %11, align 8, !tbaa !62
  %46 = getelementptr inbounds nuw %struct.WebPRGBABuffer, ptr %45, i32 0, i32 0
  %47 = load ptr, ptr %46, align 8, !tbaa !64
  %48 = load i32, ptr %13, align 4, !tbaa !19
  %49 = sext i32 %48 to i64
  %50 = load ptr, ptr %11, align 8, !tbaa !62
  %51 = getelementptr inbounds nuw %struct.WebPRGBABuffer, ptr %50, i32 0, i32 1
  %52 = load i32, ptr %51, align 8, !tbaa !67
  %53 = sext i32 %52 to i64
  %54 = mul nsw i64 %49, %53
  %55 = getelementptr inbounds i8, ptr %47, i64 %54
  store ptr %55, ptr %14, align 8, !tbaa !44
  call void @llvm.lifetime.start.p0(i64 8, ptr %15) #6
  %56 = load ptr, ptr %14, align 8, !tbaa !44
  %57 = load i32, ptr %10, align 4, !tbaa !19
  %58 = icmp ne i32 %57, 0
  %59 = select i1 %58, i32 0, i32 3
  %60 = sext i32 %59 to i64
  %61 = getelementptr inbounds i8, ptr %56, i64 %60
  store ptr %61, ptr %15, align 8, !tbaa !44
  call void @llvm.lifetime.start.p0(i64 4, ptr %16) #6
  %62 = load ptr, ptr @WebPDispatchAlpha, align 8, !tbaa !73
  %63 = load ptr, ptr %7, align 8, !tbaa !44
  %64 = load ptr, ptr %4, align 8, !tbaa !8
  %65 = getelementptr inbounds nuw %struct.VP8Io, ptr %64, i32 0, i32 0
  %66 = load i32, ptr %65, align 8, !tbaa !81
  %67 = load i32, ptr %8, align 4, !tbaa !19
  %68 = load i32, ptr %12, align 4, !tbaa !19
  %69 = load ptr, ptr %15, align 8, !tbaa !44
  %70 = load ptr, ptr %11, align 8, !tbaa !62
  %71 = getelementptr inbounds nuw %struct.WebPRGBABuffer, ptr %70, i32 0, i32 1
  %72 = load i32, ptr %71, align 8, !tbaa !67
  %73 = call i32 %62(ptr noundef %63, i32 noundef %66, i32 noundef %67, i32 noundef %68, ptr noundef %69, i32 noundef %72)
  store i32 %73, ptr %16, align 4, !tbaa !19
  %74 = load i32, ptr %16, align 4, !tbaa !19
  %75 = icmp ne i32 %74, 0
  br i1 %75, label %76, label %89

76:                                               ; preds = %36
  %77 = load i32, ptr %9, align 4, !tbaa !19
  %78 = call i32 @WebPIsPremultipliedMode(i32 noundef %77)
  %79 = icmp ne i32 %78, 0
  br i1 %79, label %80, label %89

80:                                               ; preds = %76
  %81 = load ptr, ptr @WebPApplyAlphaMultiply, align 8, !tbaa !73
  %82 = load ptr, ptr %14, align 8, !tbaa !44
  %83 = load i32, ptr %10, align 4, !tbaa !19
  %84 = load i32, ptr %8, align 4, !tbaa !19
  %85 = load i32, ptr %12, align 4, !tbaa !19
  %86 = load ptr, ptr %11, align 8, !tbaa !62
  %87 = getelementptr inbounds nuw %struct.WebPRGBABuffer, ptr %86, i32 0, i32 1
  %88 = load i32, ptr %87, align 8, !tbaa !67
  call void %81(ptr noundef %82, i32 noundef %83, i32 noundef %84, i32 noundef %85, i32 noundef %88)
  br label %89

89:                                               ; preds = %80, %76, %36
  call void @llvm.lifetime.end.p0(i64 4, ptr %16) #6
  call void @llvm.lifetime.end.p0(i64 8, ptr %15) #6
  call void @llvm.lifetime.end.p0(i64 8, ptr %14) #6
  call void @llvm.lifetime.end.p0(i64 4, ptr %13) #6
  call void @llvm.lifetime.end.p0(i64 4, ptr %12) #6
  call void @llvm.lifetime.end.p0(i64 8, ptr %11) #6
  call void @llvm.lifetime.end.p0(i64 4, ptr %10) #6
  call void @llvm.lifetime.end.p0(i64 4, ptr %9) #6
  call void @llvm.lifetime.end.p0(i64 4, ptr %8) #6
  br label %90

90:                                               ; preds = %89, %3
  call void @llvm.lifetime.end.p0(i64 8, ptr %7) #6
  ret i32 0
}