; Function Attrs: nounwind uwtable
define internal noundef i32 @EmitAlphaRGB(ptr noundef readonly captures(none) %0, ptr noundef readonly captures(none) %1, i32 %2) #1 {
  %4 = getelementptr inbounds nuw i8, ptr %0, i64 152
  %5 = load ptr, ptr %4, align 8, !tbaa !63
  %.not = icmp eq ptr %5, null
  br i1 %.not, label %57, label %6

6:                                                ; preds = %3
  %7 = getelementptr inbounds nuw i8, ptr %0, i64 12
  %8 = load i32, ptr %7, align 4, !tbaa !14
  %9 = load ptr, ptr %1, align 8, !tbaa !23
  %10 = load i32, ptr %9, align 8, !tbaa !24
  %11 = icmp eq i32 %10, 4
  %12 = icmp eq i32 %10, 9
  %13 = or i1 %11, %12
  %14 = zext i1 %13 to i32
  %15 = getelementptr inbounds nuw i8, ptr %9, i64 16
  %16 = getelementptr inbounds nuw i8, ptr %0, i64 8
  %17 = load i32, ptr %16, align 8, !tbaa !51
  %18 = getelementptr inbounds nuw i8, ptr %0, i64 16
  %19 = load i32, ptr %18, align 8, !tbaa !15
  %20 = getelementptr inbounds nuw i8, ptr %0, i64 88
  %21 = load i32, ptr %20, align 8, !tbaa !45
  %.not.i = icmp eq i32 %21, 0
  br i1 %.not.i, label %GetAlphaSourceRow.exit, label %22

22:                                               ; preds = %6
  %23 = icmp eq i32 %17, 0
  br i1 %23, label %24, label %26

24:                                               ; preds = %22
  %25 = add nsw i32 %19, -1
  br label %32

26:                                               ; preds = %22
  %27 = add nsw i32 %17, -1
  %28 = load i32, ptr %0, align 8, !tbaa !64
  %29 = sext i32 %28 to i64
  %30 = sub nsw i64 0, %29
  %31 = getelementptr inbounds i8, ptr %5, i64 %30
  br label %32

32:                                               ; preds = %26, %24
  %.025 = phi ptr [ %5, %24 ], [ %31, %26 ]
  %.0 = phi i32 [ %25, %24 ], [ %19, %26 ]
  %.1.i = phi i32 [ 0, %24 ], [ %27, %26 ]
  %33 = getelementptr inbounds nuw i8, ptr %0, i64 128
  %34 = load i32, ptr %33, align 8, !tbaa !61
  %35 = add i32 %19, %17
  %36 = add i32 %35, %34
  %37 = getelementptr inbounds nuw i8, ptr %0, i64 132
  %38 = load i32, ptr %37, align 4, !tbaa !62
  %39 = icmp eq i32 %36, %38
  %40 = sub i32 %35, %.1.i
  %spec.select = select i1 %39, i32 %40, i32 %.0
  br label %GetAlphaSourceRow.exit

GetAlphaSourceRow.exit:                           ; preds = %32, %6
  %.126 = phi ptr [ %5, %6 ], [ %.025, %32 ]
  %.1 = phi i32 [ %19, %6 ], [ %spec.select, %32 ]
  %.0.i = phi i32 [ %17, %6 ], [ %.1.i, %32 ]
  %41 = load ptr, ptr %15, align 8, !tbaa !49
  %42 = sext i32 %.0.i to i64
  %43 = getelementptr inbounds nuw i8, ptr %9, i64 24
  %44 = load i32, ptr %43, align 8, !tbaa !52
  %45 = sext i32 %44 to i64
  %46 = mul nsw i64 %45, %42
  %47 = getelementptr inbounds i8, ptr %41, i64 %46
  %48 = select i1 %13, i64 0, i64 3
  %49 = getelementptr inbounds nuw i8, ptr %47, i64 %48
  %50 = load ptr, ptr @WebPDispatchAlpha, align 8, !tbaa !58
  %51 = load i32, ptr %0, align 8, !tbaa !64
  %52 = tail call i32 %50(ptr noundef %.126, i32 noundef %51, i32 noundef %8, i32 noundef %.1, ptr noundef %49, i32 noundef %44) #6
  %.not21 = icmp eq i32 %52, 0
  %53 = add i32 %10, -11
  %narrow.i = icmp ult i32 %53, -4
  %or.cond = select i1 %.not21, i1 true, i1 %narrow.i
  br i1 %or.cond, label %57, label %54

54:                                               ; preds = %GetAlphaSourceRow.exit
  %55 = load ptr, ptr @WebPApplyAlphaMultiply, align 8, !tbaa !58
  %56 = load i32, ptr %43, align 8, !tbaa !52
  tail call void %55(ptr noundef %47, i32 noundef %14, i32 noundef %8, i32 noundef %.1, i32 noundef %56) #6
  br label %57

57:                                               ; preds = %GetAlphaSourceRow.exit, %54, %3
  ret i32 0
}